target datalayout = "e-m:e-p270:32:32-p271:32:32-p272:64:64-i64:64-i128:128-f80:128-n8:16:32:64-S128"
target triple = "x86_64-pc-linux-gnu"

%struct.object_id = type { [32 x i8], i32 }
%struct.submodule_entry = type { %struct.hashmap_entry, ptr }
%struct.hashmap_entry = type { ptr, i32 }
%struct.submodule = type { ptr, ptr, ptr, i32, ptr, ptr, %struct.submodule_update_strategy, %struct.object_id, i32 }
%struct.submodule_update_strategy = type { i32, ptr }

; Function Attrs: inlinehint nounwind uwtable
define internal i32 @oideq(ptr noundef %0, ptr noundef %1) #2 {
  %3 = alloca ptr, align 8
  %4 = alloca ptr, align 8
  store ptr %0, ptr %3, align 8, !tbaa !82
  store ptr %1, ptr %4, align 8, !tbaa !82
  %5 = load ptr, ptr %3, align 8, !tbaa !82
  %6 = getelementptr inbounds nuw %struct.object_id, ptr %5, i32 0, i32 0
  %7 = getelementptr inbounds [32 x i8], ptr %6, i64 0, i64 0
  %8 = load ptr, ptr %4, align 8, !tbaa !82
  %9 = getelementptr inbounds nuw %struct.object_id, ptr %8, i32 0, i32 0
  %10 = getelementptr inbounds [32 x i8], ptr %9, i64 0, i64 0
  %11 = call i32 @memcmp(ptr noundef %7, ptr noundef %10, i64 noundef 32) #10
  %12 = icmp ne i32 %11, 0
  %13 = xor i1 %12, true
  %14 = zext i1 %13 to i32
  ret i32 %14
}

; Function Attrs: nounwind uwtable
define internal i32 @config_path_cmp(ptr noundef %0, ptr noundef %1, ptr noundef %2, ptr noundef %3) #0 {
  %5 = alloca ptr, align 8
  %6 = alloca ptr, align 8
  %7 = alloca ptr, align 8
  %8 = alloca ptr, align 8
  %9 = alloca ptr, align 8
  %10 = alloca ptr, align 8
  store ptr %0, ptr %5, align 8, !tbaa !51
  store ptr %1, ptr %6, align 8, !tbaa !134
  store ptr %2, ptr %7, align 8, !tbaa !134
  store ptr %3, ptr %8, align 8, !tbaa !51
  call void @llvm.lifetime.start.p0(i64 8, ptr %9) #9
  call void @llvm.lifetime.start.p0(i64 8, ptr %10) #9
  %11 = load ptr, ptr %6, align 8, !tbaa !134
  %12 = getelementptr inbounds i8, ptr %11, i64 0
  store ptr %12, ptr %9, align 8, !tbaa !9
  %13 = load ptr, ptr %7, align 8, !tbaa !134
  %14 = getelementptr inbounds i8, ptr %13, i64 0
  store ptr %14, ptr %10, align 8, !tbaa !9
  %15 = load ptr, ptr %9, align 8, !tbaa !9
  %16 = getelementptr inbounds nuw %struct.submodule_entry, ptr %15, i32 0, i32 1
  %17 = load ptr, ptr %16, align 8, !tbaa !90
  %18 = getelementptr inbounds nuw %struct.submodule, ptr %17, i32 0, i32 0
  %19 = load ptr, ptr %18, align 8, !tbaa !126
  %20 = load ptr, ptr %10, align 8, !tbaa !9
  %21 = getelementptr inbounds nuw %struct.submodule_entry, ptr %20, i32 0, i32 1
  %22 = load ptr, ptr %21, align 8, !tbaa !90
  %23 = getelementptr inbounds nuw %struct.submodule, ptr %22, i32 0, i32 0
  %24 = load ptr, ptr %23, align 8, !tbaa !126
  %25 = call i32 @strcmp(ptr noundef %19, ptr noundef %24) #10
  %26 = icmp ne i32 %25, 0
  br i1 %26, label %39, label %27

27:                                               ; preds = %4
  %28 = load ptr, ptr %9, align 8, !tbaa !9
  %29 = getelementptr inbounds nuw %struct.submodule_entry, ptr %28, i32 0, i32 1
  %30 = load ptr, ptr %29, align 8, !tbaa !90
  %31 = getelementptr inbounds nuw %struct.submodule, ptr %30, i32 0, i32 7
  %32 = load ptr, ptr %10, align 8, !tbaa !9
  %33 = getelementptr inbounds nuw %struct.submodule_entry, ptr %32, i32 0, i32 1
  %34 = load ptr, ptr %33, align 8, !tbaa !90
  %35 = getelementptr inbounds nuw %struct.submodule, ptr %34, i32 0, i32 7
  %36 = call i32 @oideq(ptr noundef %31, ptr noundef %35)
  %37 = icmp ne i32 %36, 0
  %38 = xor i1 %37, true
  br label %39

39:                                               ; preds = %27, %4
  %40 = phi i1 [ true, %4 ], [ %38, %27 ]
  %41 = zext i1 %40 to i32
  call void @llvm.lifetime.end.p0(i64 8, ptr %10) #9
  call void @llvm.lifetime.end.p0(i64 8, ptr %9) #9
  ret i32 %41
}