; Function Attrs: mustprogress nofree nounwind willreturn memory(read, inaccessiblemem: none) uwtable
define internal range(i32 0, 2) i32 @config_path_cmp(ptr readnone captures(none) %0, ptr noundef readonly captures(none) %1, ptr noundef readonly captures(none) %2, ptr readnone captures(none) %3) #11 {
  %5 = getelementptr inbounds nuw i8, ptr %1, i64 16
  %6 = load ptr, ptr %5, align 8, !tbaa !4
  %7 = load ptr, ptr %6, align 8, !tbaa !13
  %8 = getelementptr inbounds nuw i8, ptr %2, i64 16
  %9 = load ptr, ptr %8, align 8, !tbaa !4
  %10 = load ptr, ptr %9, align 8, !tbaa !13
  %11 = tail call i32 @strcmp(ptr noundef nonnull dereferenceable(1) %7, ptr noundef nonnull dereferenceable(1) %10) #16
  %.not = icmp eq i32 %11, 0
  br i1 %.not, label %12, label %16

12:                                               ; preds = %4
  %13 = getelementptr inbounds nuw i8, ptr %6, i64 64
  %14 = getelementptr inbounds nuw i8, ptr %9, i64 64
  %bcmp.i = tail call i32 @bcmp(ptr noundef nonnull readonly dereferenceable(32) %13, ptr noundef nonnull readonly dereferenceable(32) %14, i64 32)
  %.not.i = icmp ne i32 %bcmp.i, 0
  %15 = zext i1 %.not.i to i32
  br label %16

16:                                               ; preds = %12, %4
  %17 = phi i32 [ 1, %4 ], [ %15, %12 ]
  ret i32 %17
}